; Function Attrs: nounwind uwtable
define internal range(i32 -12, 1) i32 @config_input(ptr noundef %0) #1 {
  %2 = getelementptr inbounds nuw i8, ptr %0, i64 16
  %3 = load ptr, ptr %2, align 8, !tbaa !47
  %4 = getelementptr inbounds nuw i8, ptr %3, i64 72
  %5 = load ptr, ptr %4, align 8, !tbaa !4
  %6 = getelementptr inbounds nuw i8, ptr %0, i64 36
  %7 = load i32, ptr %6, align 4, !tbaa !60
  switch i32 %7, label %10 [
    i32 8, label %.sink.split
    i32 9, label %8
  ]

8:                                                ; preds = %1
  br label %.sink.split

.sink.split:                                      ; preds = %1, %8
  %filter_channels_dblp.sink = phi ptr [ @filter_channels_dblp, %8 ], [ @filter_channels_fltp, %1 ]
  %9 = getelementptr inbounds nuw i8, ptr %5, i64 1016
  store ptr %filter_channels_dblp.sink, ptr %9, align 8, !tbaa !58
  br label %10

10:                                               ; preds = %.sink.split, %1
  %11 = tail call ptr @ff_get_audio_buffer(ptr noundef nonnull %0, i32 noundef 60) #8
  %12 = getelementptr inbounds nuw i8, ptr %5, i64 1008
  store ptr %11, ptr %12, align 8, !tbaa !61
  %.not = icmp eq ptr %11, null
  br i1 %.not, label %get_coeffs.exit, label %13

13:                                               ; preds = %10
  %14 = getelementptr i8, ptr %3, i64 32
  %.val = load ptr, ptr %14, align 8, !tbaa !20
  %.val9 = load ptr, ptr %4, align 8, !tbaa !4
  %.val.val = load ptr, ptr %.val, align 8, !tbaa !21
  %15 = getelementptr i8, ptr %.val.val, i64 64
  %.val.val.val = load i32, ptr %15, align 8, !tbaa !23
  %16 = getelementptr inbounds nuw i8, ptr %.val9, i64 40
  %17 = load i32, ptr %16, align 8, !tbaa !32
  %18 = sitofp i32 %.val.val.val to double
  %19 = getelementptr inbounds nuw i8, ptr %.val9, i64 8
  %20 = load double, ptr %19, align 8, !tbaa !36
  %21 = getelementptr inbounds nuw i8, ptr %.val9, i64 32
  %22 = load double, ptr %21, align 8, !tbaa !37
  %23 = getelementptr inbounds nuw i8, ptr %.val9, i64 24
  %24 = load double, ptr %23, align 8, !tbaa !38
  %25 = fmul nsz double %20, 0x401921FB54442D18
  %26 = fadd nsz double %20, %22
  %27 = fdiv nsz double %26, %20
  %28 = sitofp i32 %17 to double
  %29 = fadd nsz double %28, -1.000000e+00
  %30 = fdiv nsz double 1.000000e+00, %29
  %31 = tail call nsz double @llvm.pow.f64(double %27, double %30)
  %32 = fdiv nsz double 1.000000e+00, %18
  %33 = icmp sgt i32 %17, 0
  br i1 %33, label %.lr.ph.i.i, label %get_coeffs.exit

.lr.ph.i.i:                                       ; preds = %13
  %34 = getelementptr inbounds nuw i8, ptr %.val9, i64 48
  %35 = fmul nsz double %32, %25
  %36 = fmul nsz double %35, 5.000000e-01
  %37 = tail call nsz double @llvm.tan.f64(double %36)
  %38 = fdiv nsz double 5.000000e-01, %18
  %39 = tail call nsz double @llvm.tan.f64(double %38)
  %40 = fdiv nsz double 1.000000e+00, %39
  %wide.trip.count.i.i = zext nneg i32 %17 to i64
  br label %41

41:                                               ; preds = %41, %.lr.ph.i.i
  %indvars.iv.i.i = phi i64 [ 0, %.lr.ph.i.i ], [ %indvars.iv.next.i.i, %41 ]
  %42 = getelementptr inbounds nuw [30 x %struct.Coeffs], ptr %34, i64 0, i64 %indvars.iv.i.i
  %43 = trunc nuw nsw i64 %indvars.iv.i.i to i32
  %44 = uitofp nneg i32 %43 to double
  %45 = fsub nsz double %44, %24
  %46 = tail call nsz double @llvm.pow.f64(double %31, double %45)
  %47 = fmul nsz double %25, %46
  %48 = fmul nsz double %32, %47
  %49 = fmul nsz double %48, 5.000000e-01
  %50 = tail call nsz double @llvm.tan.f64(double %49)
  %51 = fmul nsz double %25, %50
  %52 = fdiv nsz double %51, %37
  %53 = tail call nsz double @llvm.pow.f64(double %31, double %44)
  %54 = fmul nsz double %25, %53
  %55 = fmul nsz double %32, %54
  %56 = fmul nsz double %55, 5.000000e-01
  %57 = tail call nsz double @llvm.tan.f64(double %56)
  %58 = fmul nsz double %25, %57
  %59 = fdiv nsz double %58, %37
  %60 = fadd nsz double %40, %59
  %61 = fsub nsz double %52, %40
  %62 = fdiv nsz double %61, %60
  %63 = getelementptr inbounds nuw i8, ptr %42, i64 24
  store double %62, ptr %63, align 8, !tbaa !39
  %64 = fadd nsz double %40, %52
  %65 = fdiv nsz double %64, %60
  %66 = getelementptr inbounds nuw i8, ptr %42, i64 16
  store double %65, ptr %66, align 8, !tbaa !41
  %67 = fsub nsz double %59, %40
  %68 = fdiv nsz double %67, %60
  %69 = getelementptr inbounds nuw i8, ptr %42, i64 8
  store double %68, ptr %69, align 8, !tbaa !42
  %70 = fdiv nsz double %59, %52
  store double %70, ptr %42, align 8, !tbaa !43
  %indvars.iv.next.i.i = add nuw nsw i64 %indvars.iv.i.i, 1
  %exitcond.not.i.i = icmp eq i64 %indvars.iv.next.i.i, %wide.trip.count.i.i
  br i1 %exitcond.not.i.i, label %get_coeffs.exit, label %41, !llvm.loop !44

get_coeffs.exit:                                  ; preds = %41, %13, %10
  %.0 = phi i32 [ -12, %10 ], [ 0, %13 ], [ 0, %41 ]
  ret i32 %.0
}